; Function Attrs: mustprogress nounwind uwtable
define dso_local void @_ZN4llvm18AArch64InstPrinter21printBarriernXSOptionEPKNS_6MCInstEjRKNS_15MCSubtargetInfoERNS_11raw_ostreamE(ptr noundef nonnull align 8 dereferenceable(58) %0, ptr nocapture noundef readonly %1, i32 noundef %2, ptr nocapture nonnull readnone align 8 %3, ptr noundef nonnull align 8 dereferenceable(48) %4) local_unnamed_addr #1 align 2 {
  %6 = alloca %"class.llvm::MCInstPrinter::WithMarkup", align 8
  %7 = getelementptr inbounds nuw i8, ptr %1, i64 16
  %8 = zext i32 %2 to i64
  %9 = load ptr, ptr %7, align 8
  %10 = getelementptr inbounds %"class.llvm::MCOperand", ptr %9, i64 %8, i32 1
  %11 = load i64, ptr %10, align 8
  %12 = trunc i64 %11 to i8
  %13 = tail call noundef ptr @_ZN4llvm12AArch64DBnXS21lookupDBnXSByEncodingEh(i8 noundef zeroext %12) #22
  %.not = icmp eq ptr %13, null
  br i1 %.not, label %_ZN4llvm9StringRefC2EPKc.exit, label %14

14:                                               ; preds = %5
  %15 = load ptr, ptr %13, align 8
  %.not.i = icmp eq ptr %15, null
  br i1 %.not.i, label %_ZN4llvm9StringRefC2EPKc.exit.thread, label %_ZN4llvm9StringRefC2EPKc.exit

_ZN4llvm9StringRefC2EPKc.exit:                    ; preds = %5, %14
  %16 = phi ptr [ %15, %14 ], [ @.str.103, %5 ]
  %17 = tail call noundef i64 @strlen(ptr noundef nonnull dereferenceable(1) %16) #22
  %18 = icmp eq i64 %17, 0
  br i1 %18, label %_ZN4llvm9StringRefC2EPKc.exit.thread, label %19

19:                                               ; preds = %_ZN4llvm9StringRefC2EPKc.exit
  %20 = getelementptr inbounds nuw i8, ptr %4, i64 24
  %21 = load ptr, ptr %20, align 8
  %22 = getelementptr inbounds nuw i8, ptr %4, i64 32
  %23 = load ptr, ptr %22, align 8
  %24 = ptrtoint ptr %21 to i64
  %25 = ptrtoint ptr %23 to i64
  %26 = sub i64 %24, %25
  %27 = icmp ugt i64 %17, %26
  br i1 %27, label %28, label %30

28:                                               ; preds = %19
  %29 = tail call noundef nonnull align 8 dereferenceable(48) ptr @_ZN4llvm11raw_ostream5writeEPKcm(ptr noundef nonnull align 8 dereferenceable(48) %4, ptr noundef nonnull %16, i64 noundef %17) #22
  br label %_ZN4llvm11raw_ostreamlsENS_9StringRefE.exit

30:                                               ; preds = %19
  tail call void @llvm.memcpy.p0.p0.i64(ptr align 1 %23, ptr nonnull align 1 %16, i64 %17, i1 false)
  %31 = load ptr, ptr %22, align 8
  %32 = getelementptr inbounds i8, ptr %31, i64 %17
  store ptr %32, ptr %22, align 8
  br label %_ZN4llvm11raw_ostreamlsENS_9StringRefE.exit

_ZN4llvm9StringRefC2EPKc.exit.thread:             ; preds = %14, %_ZN4llvm9StringRefC2EPKc.exit
  call void @_ZNK4llvm13MCInstPrinter6markupERNS_11raw_ostreamENS0_6MarkupE(ptr dead_on_unwind nonnull writable sret(%"class.llvm::MCInstPrinter::WithMarkup") align 8 %6, ptr noundef nonnull align 8 dereferenceable(58) %0, ptr noundef nonnull align 8 dereferenceable(48) %4, i32 noundef 0) #22
  %33 = load ptr, ptr %6, align 8
  %34 = getelementptr inbounds nuw i8, ptr %33, i64 24
  %35 = load ptr, ptr %34, align 8
  %36 = getelementptr inbounds nuw i8, ptr %33, i64 32
  %37 = load ptr, ptr %36, align 8
  %38 = icmp eq ptr %35, %37
  br i1 %38, label %39, label %41

39:                                               ; preds = %_ZN4llvm9StringRefC2EPKc.exit.thread
  %40 = call noundef nonnull align 8 dereferenceable(48) ptr @_ZN4llvm11raw_ostream5writeEPKcm(ptr noundef nonnull align 8 dereferenceable(48) %33, ptr noundef nonnull @.str.87, i64 noundef 1) #22
  br label %_ZN4llvm13MCInstPrinter10WithMarkuplsIA2_cEERS1_RKT_.exit

41:                                               ; preds = %_ZN4llvm9StringRefC2EPKc.exit.thread
  store i8 35, ptr %37, align 1
  %42 = load ptr, ptr %36, align 8
  %43 = getelementptr inbounds i8, ptr %42, i64 1
  store ptr %43, ptr %36, align 8
  br label %_ZN4llvm13MCInstPrinter10WithMarkuplsIA2_cEERS1_RKT_.exit

_ZN4llvm13MCInstPrinter10WithMarkuplsIA2_cEERS1_RKT_.exit: ; preds = %39, %41
  %44 = load ptr, ptr %6, align 8
  %45 = and i64 %11, 4294967295
  %46 = call noundef nonnull align 8 dereferenceable(48) ptr @_ZN4llvm11raw_ostreamlsEm(ptr noundef nonnull align 8 dereferenceable(48) %44, i64 noundef %45) #22
  call void @_ZN4llvm13MCInstPrinter10WithMarkupD1Ev(ptr noundef nonnull align 8 dereferenceable(10) %6) #22
  br label %_ZN4llvm11raw_ostreamlsENS_9StringRefE.exit

_ZN4llvm11raw_ostreamlsENS_9StringRefE.exit:      ; preds = %30, %28, %_ZN4llvm13MCInstPrinter10WithMarkuplsIA2_cEERS1_RKT_.exit
  ret void
}